; Function Attrs: null_pointer_is_valid sspstrong uwtable
define internal void @xmpp_message_subject(ptr noundef %0, ptr noundef %1, ptr noundef %2, ptr noundef %3) #0 {
  %5 = alloca [2 x %struct._xmpp_attr_info], align 16
  call void @llvm.lifetime.start.p0(i64 80, ptr nonnull %5) #5
  call void @llvm.memcpy.p0.p0.i64(ptr noundef nonnull align 16 dereferenceable(80) %5, ptr noundef nonnull align 16 dereferenceable(80) @__const.xmpp_message_subject.attrs_info, i64 80, i1 false)
  %6 = load i32, ptr @hf_xmpp_message_subject, align 4
  %7 = getelementptr inbounds nuw i8, ptr %3, i64 48
  %8 = load i32, ptr %7, align 8
  %9 = getelementptr inbounds nuw i8, ptr %3, i64 52
  %10 = load i32, ptr %9, align 4
  %11 = tail call ptr @proto_tree_add_item(ptr noundef %0, i32 noundef %6, ptr noundef %1, i32 noundef %8, i32 noundef %10, i32 noundef 0)
  %12 = load i32, ptr @ett_xmpp_message_subject, align 4
  %13 = tail call ptr @proto_item_add_subtree(ptr noundef %11, i32 noundef %12)
  %14 = getelementptr inbounds nuw i8, ptr %2, i64 408
  %15 = load ptr, ptr %14, align 8
  %16 = getelementptr inbounds nuw i8, ptr %3, i64 40
  %17 = load ptr, ptr %16, align 8
  %.not = icmp eq ptr %17, null
  br i1 %.not, label %20, label %18

18:                                               ; preds = %4
  %19 = load ptr, ptr %17, align 8
  br label %20

20:                                               ; preds = %4, %18
  %21 = phi ptr [ %19, %18 ], [ @.str.49, %4 ]
  %22 = load i32, ptr %7, align 8
  %23 = load i32, ptr %9, align 4
  %24 = tail call ptr @xmpp_ep_init_attr_t(ptr noundef %15, ptr noundef %21, i32 noundef %22, i32 noundef %23)
  %25 = getelementptr inbounds nuw i8, ptr %3, i64 24
  %26 = load ptr, ptr %25, align 8
  %27 = tail call i32 @g_hash_table_insert(ptr noundef %26, ptr noundef nonnull @.str.124, ptr noundef %24)
  call void @xmpp_display_attrs(ptr noundef %13, ptr noundef %3, ptr noundef %2, ptr noundef %1, ptr noundef nonnull %5, i32 noundef 2)
  call void @xmpp_unknown(ptr noundef %13, ptr noundef %1, ptr noundef %2, ptr noundef %3)
  call void @llvm.lifetime.end.p0(i64 80, ptr nonnull %5) #5
  ret void
}